target datalayout = "e-m:e-p270:32:32-p271:32:32-p272:64:64-i64:64-i128:128-f80:128-n8:16:32:64-S128"
target triple = "x86_64-pc-linux-gnu"

%struct.RStruct = type { %struct.RBasic, %union.anon.12 }
%struct.RBasic = type { i64, i64 }
%union.anon.12 = type { %struct.anon.13 }
%struct.anon.13 = type { i64, ptr }

@rb_eTypeError = external global i64, align 8
@.str.4 = private unnamed_addr constant [21 x i8] c"struct size mismatch\00", align 1
@.str.47 = private unnamed_addr constant [21 x i8] c"../internal/struct.h\00", align 1

; Function Attrs: inlinehint nounwind sspstrong willreturn memory(none) uwtable
define internal zeroext i1 @RB_IMMEDIATE_P(i64 noundef %0) #3 {
  %2 = alloca i64, align 8
  store i64 %0, ptr %2, align 8, !tbaa !7
  %3 = load i64, ptr %2, align 8, !tbaa !7
  %4 = and i64 %3, 7
  %5 = icmp ne i64 %4, 0
  ret i1 %5
}

; Function Attrs: inlinehint nounwind sspstrong willreturn memory(none) uwtable
define internal zeroext i1 @RB_SPECIAL_CONST_P(i64 noundef %0) #3 {
  %2 = alloca i64, align 8
  store i64 %0, ptr %2, align 8, !tbaa !7
  %3 = load i64, ptr %2, align 8, !tbaa !7
  %4 = icmp eq i64 %3, 0
  br i1 %4, label %8, label %5

5:                                                ; preds = %1
  %6 = load i64, ptr %2, align 8, !tbaa !7
  %7 = call zeroext i1 @RB_IMMEDIATE_P(i64 noundef %6) #27
  br label %8

8:                                                ; preds = %5, %1
  %9 = phi i1 [ true, %1 ], [ %7, %5 ]
  ret i1 %9
}

; Function Attrs: inlinehint nounwind sspstrong uwtable
define internal i64 @rb_obj_written(i64 noundef %0, i64 noundef %1, i64 noundef %2, ptr noundef %3, i32 noundef %4) #1 {
  %6 = alloca i64, align 8
  %7 = alloca i64, align 8
  %8 = alloca i64, align 8
  %9 = alloca ptr, align 8
  %10 = alloca i32, align 4
  store i64 %0, ptr %6, align 8, !tbaa !7
  store i64 %1, ptr %7, align 8, !tbaa !7
  store i64 %2, ptr %8, align 8, !tbaa !7
  store ptr %3, ptr %9, align 8, !tbaa !16
  store i32 %4, ptr %10, align 4, !tbaa !11
  %11 = load i64, ptr %8, align 8, !tbaa !7
  %12 = call zeroext i1 @RB_SPECIAL_CONST_P(i64 noundef %11) #27
  br i1 %12, label %16, label %13

13:                                               ; preds = %5
  %14 = load i64, ptr %6, align 8, !tbaa !7
  %15 = load i64, ptr %8, align 8, !tbaa !7
  call void @rb_gc_writebarrier(i64 noundef %14, i64 noundef %15)
  br label %16

16:                                               ; preds = %13, %5
  %17 = load i64, ptr %6, align 8, !tbaa !7
  ret i64 %17
}

; Function Attrs: inlinehint nounwind sspstrong uwtable
define internal i64 @rb_obj_write(i64 noundef %0, ptr noundef %1, i64 noundef %2, ptr noundef %3, i32 noundef %4) #1 {
  %6 = alloca i64, align 8
  %7 = alloca ptr, align 8
  %8 = alloca i64, align 8
  %9 = alloca ptr, align 8
  %10 = alloca i32, align 4
  store i64 %0, ptr %6, align 8, !tbaa !7
  store ptr %1, ptr %7, align 8, !tbaa !28
  store i64 %2, ptr %8, align 8, !tbaa !7
  store ptr %3, ptr %9, align 8, !tbaa !16
  store i32 %4, ptr %10, align 4, !tbaa !11
  %11 = load i64, ptr %8, align 8, !tbaa !7
  %12 = load ptr, ptr %7, align 8, !tbaa !28
  store i64 %11, ptr %12, align 8, !tbaa !7
  %13 = load i64, ptr %6, align 8, !tbaa !7
  %14 = load i64, ptr %8, align 8, !tbaa !7
  %15 = load ptr, ptr %9, align 8, !tbaa !16
  %16 = load i32, ptr %10, align 4, !tbaa !11
  %17 = call i64 @rb_obj_written(i64 noundef %13, i64 noundef 36, i64 noundef %14, ptr noundef %15, i32 noundef %16)
  %18 = load i64, ptr %6, align 8, !tbaa !7
  ret i64 %18
}

; Function Attrs: inlinehint nounwind sspstrong uwtable
define internal ptr @RSTRUCT_CONST_PTR(i64 noundef %0) #1 {
  %2 = alloca ptr, align 8
  %3 = alloca i64, align 8
  %4 = alloca ptr, align 8
  %5 = alloca i32, align 4
  store i64 %0, ptr %3, align 8, !tbaa !7
  call void @llvm.lifetime.start.p0(i64 8, ptr %4) #26
  %6 = load i64, ptr %3, align 8, !tbaa !7
  %7 = inttoptr i64 %6 to ptr
  store ptr %7, ptr %4, align 8, !tbaa !19
  %8 = load i64, ptr %3, align 8, !tbaa !7
  %9 = call i64 @RB_FL_TEST_RAW(i64 noundef %8, i64 noundef 1040384) #28
  %10 = icmp ne i64 %9, 0
  br i1 %10, label %11, label %15

11:                                               ; preds = %1
  %12 = load ptr, ptr %4, align 8, !tbaa !19
  %13 = getelementptr inbounds nuw %struct.RStruct, ptr %12, i32 0, i32 1
  %14 = getelementptr inbounds [1 x i64], ptr %13, i64 0, i64 0
  store ptr %14, ptr %2, align 8
  store i32 1, ptr %5, align 4
  br label %20

15:                                               ; preds = %1
  %16 = load ptr, ptr %4, align 8, !tbaa !19
  %17 = getelementptr inbounds nuw %struct.RStruct, ptr %16, i32 0, i32 1
  %18 = getelementptr inbounds nuw %struct.anon.13, ptr %17, i32 0, i32 1
  %19 = load ptr, ptr %18, align 8, !tbaa !13
  store ptr %19, ptr %2, align 8
  store i32 1, ptr %5, align 4
  br label %20

20:                                               ; preds = %15, %11
  call void @llvm.lifetime.end.p0(i64 8, ptr %4) #26
  %21 = load ptr, ptr %2, align 8
  ret ptr %21
}

; Function Attrs: inlinehint nounwind sspstrong uwtable
define internal i64 @RSTRUCT_EMBED_LEN(i64 noundef %0) #1 {
  %2 = alloca i64, align 8
  %3 = alloca i64, align 8
  store i64 %0, ptr %2, align 8, !tbaa !7
  call void @llvm.lifetime.start.p0(i64 8, ptr %3) #26
  %4 = load i64, ptr %2, align 8, !tbaa !7
  %5 = call i64 @RB_FL_TEST_RAW(i64 noundef %4, i64 noundef 1040384) #28
  store i64 %5, ptr %3, align 8, !tbaa !7
  %6 = load i64, ptr %3, align 8, !tbaa !7
  %7 = ashr i64 %6, 13
  store i64 %7, ptr %3, align 8, !tbaa !7
  %8 = load i64, ptr %3, align 8, !tbaa !7
  call void @llvm.lifetime.end.p0(i64 8, ptr %3) #26
  ret i64 %8
}

; Function Attrs: inlinehint nounwind sspstrong willreturn memory(read) uwtable
define internal i64 @RB_FL_TEST_RAW(i64 noundef %0, i64 noundef %1) #6 {
  %3 = alloca i64, align 8
  %4 = alloca i64, align 8
  store i64 %0, ptr %3, align 8, !tbaa !7
  store i64 %1, ptr %4, align 8, !tbaa !7
  %5 = load i64, ptr %3, align 8, !tbaa !7
  %6 = inttoptr i64 %5 to ptr
  %7 = getelementptr inbounds nuw %struct.RBasic, ptr %6, i32 0, i32 0
  %8 = load i64, ptr %7, align 8, !tbaa !52
  %9 = load i64, ptr %4, align 8, !tbaa !7
  %10 = and i64 %8, %9
  ret i64 %10
}

; Function Attrs: inlinehint nounwind sspstrong uwtable
define internal void @internal_RSTRUCT_SET(i64 noundef %0, i64 noundef %1, i64 noundef %2) #1 {
  %4 = alloca i64, align 8
  %5 = alloca i64, align 8
  %6 = alloca i64, align 8
  store i64 %0, ptr %4, align 8, !tbaa !7
  store i64 %1, ptr %5, align 8, !tbaa !7
  store i64 %2, ptr %6, align 8, !tbaa !7
  %7 = load i64, ptr %4, align 8, !tbaa !7
  %8 = load i64, ptr %4, align 8, !tbaa !7
  %9 = call ptr @RSTRUCT_CONST_PTR(i64 noundef %8)
  %10 = load i64, ptr %5, align 8, !tbaa !7
  %11 = getelementptr i64, ptr %9, i64 %10
  %12 = load i64, ptr %6, align 8, !tbaa !7
  %13 = call i64 @rb_obj_write(i64 noundef %7, ptr noundef %11, i64 noundef %12, ptr noundef @.str.47, i32 noundef 110)
  ret void
}

; Function Attrs: inlinehint nounwind sspstrong uwtable
define internal i64 @internal_RSTRUCT_GET(i64 noundef %0, i64 noundef %1) #1 {
  %3 = alloca i64, align 8
  %4 = alloca i64, align 8
  store i64 %0, ptr %3, align 8, !tbaa !7
  store i64 %1, ptr %4, align 8, !tbaa !7
  %5 = load i64, ptr %3, align 8, !tbaa !7
  %6 = call ptr @RSTRUCT_CONST_PTR(i64 noundef %5)
  %7 = load i64, ptr %4, align 8, !tbaa !7
  %8 = getelementptr i64, ptr %6, i64 %7
  %9 = load i64, ptr %8, align 8, !tbaa !7
  ret i64 %9
}

; Function Attrs: inlinehint nounwind sspstrong uwtable
define internal i64 @internal_RSTRUCT_LEN(i64 noundef %0) #1 {
  %2 = alloca i64, align 8
  %3 = alloca i64, align 8
  store i64 %0, ptr %3, align 8, !tbaa !7
  %4 = load i64, ptr %3, align 8, !tbaa !7
  %5 = call i64 @RB_FL_TEST_RAW(i64 noundef %4, i64 noundef 1040384) #28
  %6 = icmp ne i64 %5, 0
  br i1 %6, label %7, label %10

7:                                                ; preds = %1
  %8 = load i64, ptr %3, align 8, !tbaa !7
  %9 = call i64 @RSTRUCT_EMBED_LEN(i64 noundef %8)
  store i64 %9, ptr %2, align 8
  br label %16

10:                                               ; preds = %1
  %11 = load i64, ptr %3, align 8, !tbaa !7
  %12 = inttoptr i64 %11 to ptr
  %13 = getelementptr inbounds nuw %struct.RStruct, ptr %12, i32 0, i32 1
  %14 = getelementptr inbounds nuw %struct.anon.13, ptr %13, i32 0, i32 0
  %15 = load i64, ptr %14, align 8, !tbaa !13
  store i64 %15, ptr %2, align 8
  br label %16

16:                                               ; preds = %10, %7
  %17 = load i64, ptr %2, align 8
  ret i64 %17
}

; Function Attrs: nounwind sspstrong uwtable
define hidden i64 @rb_struct_init_copy(i64 noundef %0, i64 noundef %1) #0 {
  %3 = alloca i64, align 8
  %4 = alloca i64, align 8
  %5 = alloca i64, align 8
  %6 = alloca i64, align 8
  %7 = alloca i64, align 8
  %8 = alloca i32, align 4
  store i64 %0, ptr %4, align 8, !tbaa !7
  store i64 %1, ptr %5, align 8, !tbaa !7
  call void @llvm.lifetime.start.p0(i64 8, ptr %6) #26
  call void @llvm.lifetime.start.p0(i64 8, ptr %7) #26
  %9 = load i64, ptr %4, align 8, !tbaa !7
  %10 = load i64, ptr %5, align 8, !tbaa !7
  %11 = icmp ne i64 %9, %10
  br i1 %11, label %12, label %16

12:                                               ; preds = %2
  %13 = load i64, ptr %4, align 8, !tbaa !7
  %14 = load i64, ptr %5, align 8, !tbaa !7
  %15 = call i64 @rb_obj_init_copy(i64 noundef %13, i64 noundef %14)
  br i1 true, label %18, label %16

16:                                               ; preds = %12, %2
  %17 = load i64, ptr %4, align 8, !tbaa !7
  store i64 %17, ptr %3, align 8
  store i32 1, ptr %8, align 4
  br label %44

18:                                               ; preds = %12
  %19 = load i64, ptr %4, align 8, !tbaa !7
  %20 = call i64 @internal_RSTRUCT_LEN(i64 noundef %19)
  %21 = load i64, ptr %5, align 8, !tbaa !7
  %22 = call i64 @internal_RSTRUCT_LEN(i64 noundef %21)
  %23 = icmp ne i64 %20, %22
  br i1 %23, label %24, label %26

24:                                               ; preds = %18
  %25 = load i64, ptr @rb_eTypeError, align 8, !tbaa !7
  call void (i64, ptr, ...) @rb_raise(i64 noundef %25, ptr noundef @.str.4) #29
  unreachable

26:                                               ; preds = %18
  store i64 0, ptr %6, align 8, !tbaa !7
  %27 = load i64, ptr %4, align 8, !tbaa !7
  %28 = call i64 @internal_RSTRUCT_LEN(i64 noundef %27)
  store i64 %28, ptr %7, align 8, !tbaa !7
  br label %29

29:                                               ; preds = %39, %26
  %30 = load i64, ptr %6, align 8, !tbaa !7
  %31 = load i64, ptr %7, align 8, !tbaa !7
  %32 = icmp slt i64 %30, %31
  br i1 %32, label %33, label %42

33:                                               ; preds = %29
  %34 = load i64, ptr %4, align 8, !tbaa !7
  %35 = load i64, ptr %6, align 8, !tbaa !7
  %36 = load i64, ptr %5, align 8, !tbaa !7
  %37 = load i64, ptr %6, align 8, !tbaa !7
  %38 = call i64 @internal_RSTRUCT_GET(i64 noundef %36, i64 noundef %37)
  call void @internal_RSTRUCT_SET(i64 noundef %34, i64 noundef %35, i64 noundef %38)
  br label %39

39:                                               ; preds = %33
  %40 = load i64, ptr %6, align 8, !tbaa !7
  %41 = add i64 %40, 1
  store i64 %41, ptr %6, align 8, !tbaa !7
  br label %29, !llvm.loop !41

42:                                               ; preds = %29
  %43 = load i64, ptr %4, align 8, !tbaa !7
  store i64 %43, ptr %3, align 8
  store i32 1, ptr %8, align 4
  br label %44

44:                                               ; preds = %42, %16
  call void @llvm.lifetime.end.p0(i64 8, ptr %7) #26
  call void @llvm.lifetime.end.p0(i64 8, ptr %6) #26
  %45 = load i64, ptr %3, align 8
  ret i64 %45
}