; Function Attrs: nounwind sspstrong uwtable
define hidden noundef i64 @rb_struct_init_copy(i64 noundef returned %0, i64 noundef %1) #0 {
  %.not = icmp eq i64 %0, %1
  br i1 %.not, label %.loopexit, label %3

3:                                                ; preds = %2
  %4 = tail call i64 @rb_obj_init_copy(i64 noundef %0, i64 noundef %1) #19
  %5 = inttoptr i64 %0 to ptr
  %6 = load i64, ptr %5, align 8, !tbaa !11
  %7 = and i64 %6, 1040384
  %.not.i = icmp eq i64 %7, 0
  br i1 %.not.i, label %11, label %8

8:                                                ; preds = %3
  %9 = lshr i64 %6, 13
  %10 = and i64 %9, 127
  br label %internal_RSTRUCT_LEN.exit

11:                                               ; preds = %3
  %12 = getelementptr inbounds nuw i8, ptr %5, i64 16
  %13 = load i64, ptr %12, align 8, !tbaa !13
  br label %internal_RSTRUCT_LEN.exit

internal_RSTRUCT_LEN.exit:                        ; preds = %8, %11
  %.0.i = phi i64 [ %10, %8 ], [ %13, %11 ]
  %14 = inttoptr i64 %1 to ptr
  %15 = load i64, ptr %14, align 8, !tbaa !11
  %16 = and i64 %15, 1040384
  %.not.i20 = icmp eq i64 %16, 0
  br i1 %.not.i20, label %20, label %17

17:                                               ; preds = %internal_RSTRUCT_LEN.exit
  %18 = lshr i64 %15, 13
  %19 = and i64 %18, 127
  br label %internal_RSTRUCT_LEN.exit22

20:                                               ; preds = %internal_RSTRUCT_LEN.exit
  %21 = getelementptr inbounds nuw i8, ptr %14, i64 16
  %22 = load i64, ptr %21, align 8, !tbaa !13
  br label %internal_RSTRUCT_LEN.exit22

internal_RSTRUCT_LEN.exit22:                      ; preds = %17, %20
  %.0.i21 = phi i64 [ %19, %17 ], [ %22, %20 ]
  %.not19 = icmp eq i64 %.0.i, %.0.i21
  br i1 %.not19, label %25, label %23

23:                                               ; preds = %internal_RSTRUCT_LEN.exit22
  %24 = load i64, ptr @rb_eTypeError, align 8, !tbaa !7
  tail call void (i64, ptr, ...) @rb_raise(i64 noundef %24, ptr noundef nonnull @.str.4) #21
  unreachable

25:                                               ; preds = %internal_RSTRUCT_LEN.exit22
  br i1 %.not.i, label %29, label %26

26:                                               ; preds = %25
  %27 = lshr i64 %6, 13
  %28 = and i64 %27, 127
  br label %internal_RSTRUCT_LEN.exit25

29:                                               ; preds = %25
  %30 = getelementptr inbounds nuw i8, ptr %5, i64 16
  %31 = load i64, ptr %30, align 8, !tbaa !13
  br label %internal_RSTRUCT_LEN.exit25

internal_RSTRUCT_LEN.exit25:                      ; preds = %26, %29
  %.0.i24 = phi i64 [ %28, %26 ], [ %31, %29 ]
  %32 = icmp sgt i64 %.0.i24, 0
  br i1 %32, label %.lr.ph, label %.loopexit

.lr.ph:                                           ; preds = %internal_RSTRUCT_LEN.exit25
  %33 = getelementptr inbounds nuw i8, ptr %14, i64 16
  %34 = getelementptr inbounds nuw i8, ptr %14, i64 24
  %35 = getelementptr inbounds nuw i8, ptr %5, i64 16
  %36 = getelementptr inbounds nuw i8, ptr %5, i64 24
  br label %37

37:                                               ; preds = %.lr.ph, %internal_RSTRUCT_SET.exit
  %.01728 = phi i64 [ 0, %.lr.ph ], [ %54, %internal_RSTRUCT_SET.exit ]
  %38 = load i64, ptr %14, align 8, !tbaa !11
  %39 = and i64 %38, 1040384
  %.not.i.i = icmp eq i64 %39, 0
  br i1 %.not.i.i, label %40, label %internal_RSTRUCT_GET.exit

40:                                               ; preds = %37
  %41 = load ptr, ptr %34, align 8, !tbaa !13
  br label %internal_RSTRUCT_GET.exit

internal_RSTRUCT_GET.exit:                        ; preds = %37, %40
  %.0.i.i = phi ptr [ %41, %40 ], [ %33, %37 ]
  %42 = getelementptr i64, ptr %.0.i.i, i64 %.01728
  %43 = load i64, ptr %42, align 8, !tbaa !7
  %44 = load i64, ptr %5, align 8, !tbaa !11
  %45 = and i64 %44, 1040384
  %.not.i.i26 = icmp eq i64 %45, 0
  br i1 %.not.i.i26, label %46, label %RSTRUCT_CONST_PTR.exit.i

46:                                               ; preds = %internal_RSTRUCT_GET.exit
  %47 = load ptr, ptr %36, align 8, !tbaa !13
  br label %RSTRUCT_CONST_PTR.exit.i

RSTRUCT_CONST_PTR.exit.i:                         ; preds = %internal_RSTRUCT_GET.exit, %46
  %.0.i.i27 = phi ptr [ %47, %46 ], [ %35, %internal_RSTRUCT_GET.exit ]
  %48 = getelementptr i64, ptr %.0.i.i27, i64 %.01728
  store i64 %43, ptr %48, align 8, !tbaa !7
  %49 = icmp eq i64 %43, 0
  %50 = and i64 %43, 7
  %51 = icmp ne i64 %50, 0
  %52 = or i1 %49, %51
  br i1 %52, label %internal_RSTRUCT_SET.exit, label %53

53:                                               ; preds = %RSTRUCT_CONST_PTR.exit.i
  tail call void @rb_gc_writebarrier(i64 noundef %0, i64 noundef %43) #19
  br label %internal_RSTRUCT_SET.exit

internal_RSTRUCT_SET.exit:                        ; preds = %RSTRUCT_CONST_PTR.exit.i, %53
  %54 = add nuw nsw i64 %.01728, 1
  %exitcond.not = icmp eq i64 %54, %.0.i24
  br i1 %exitcond.not, label %.loopexit, label %37, !llvm.loop !41

.loopexit:                                        ; preds = %internal_RSTRUCT_SET.exit, %internal_RSTRUCT_LEN.exit25, %2
  ret i64 %0
}